; Function Attrs: mustprogress nounwind uwtable
define dso_local noundef zeroext i1 @_ZN4llvm8LLParser15parseGlobalTypeERb(ptr noundef nonnull align 8 dereferenceable(1768) %0, ptr nocapture noundef nonnull writeonly align 1 dereferenceable(1) %1) local_unnamed_addr #0 align 2 {
  %3 = alloca %"class.llvm::Twine", align 8
  %4 = getelementptr inbounds nuw i8, ptr %0, i64 176
  %5 = getelementptr inbounds i8, ptr %0, i64 232
  %6 = load i32, ptr %5, align 8
  switch i32 %6, label %7 [
    i32 25, label %13
    i32 24, label %.fold.split
  ]

7:                                                ; preds = %2
  store i8 0, ptr %1, align 1
  %8 = getelementptr inbounds nuw i8, ptr %3, i64 32
  %9 = getelementptr inbounds nuw i8, ptr %3, i64 33
  store i8 1, ptr %9, align 1
  store ptr @.str.27, ptr %3, align 8
  store i8 3, ptr %8, align 8
  %10 = getelementptr inbounds i8, ptr %0, i64 224
  %11 = load ptr, ptr %10, align 8
  %12 = call noundef zeroext i1 @_ZNK4llvm7LLLexer5ErrorENS_5SMLocERKNS_5TwineE(ptr noundef nonnull align 8 dereferenceable(161) %4, ptr %11, ptr noundef nonnull align 8 dereferenceable(34) %3) #25
  br label %15

.fold.split:                                      ; preds = %2
  br label %13

13:                                               ; preds = %2, %.fold.split
  %storemerge = phi i8 [ 1, %2 ], [ 0, %.fold.split ]
  store i8 %storemerge, ptr %1, align 1
  %14 = tail call noundef i32 @_ZN4llvm7LLLexer8LexTokenEv(ptr noundef nonnull align 8 dereferenceable(161) %4) #25
  store i32 %14, ptr %5, align 8
  br label %15

15:                                               ; preds = %13, %7
  %.0 = phi i1 [ false, %13 ], [ %12, %7 ]
  ret i1 %.0
}